target datalayout = "e-m:e-p270:32:32-p271:32:32-p272:64:64-i64:64-i128:128-f80:128-n8:16:32:64-S128"
target triple = "x86_64-unknown-linux-gnu"

%class.vector.36 = type { ptr }
%"struct.(anonymous namespace)::get_implied_equalities_impl::term_id" = type <{ %class.obj_ref.37, i32, [4 x i8] }>
%class.obj_ref.37 = type { ptr, ptr }
%class.ast = type { i32, i24, i32, i32 }

; Function Attrs: mustprogress nounwind uwtable
define linkonce_odr hidden noundef i32 @_ZNK3ast13get_ref_countEv(ptr noundef nonnull align 4 dereferenceable(16) %this) #5 comdat align 2 {
entry:
  %this.addr = alloca ptr, align 8
  store ptr %this, ptr %this.addr, align 8
  %this1 = load ptr, ptr %this.addr, align 8
  %m_ref_count = getelementptr inbounds %class.ast, ptr %this1, i32 0, i32 2
  %0 = load i32, ptr %m_ref_count, align 4
  ret i32 %0
}

; Function Attrs: mustprogress nounwind uwtable
define linkonce_odr hidden void @_ZN3ast7dec_refEv(ptr noundef nonnull align 4 dereferenceable(16) %this) #5 comdat align 2 {
entry:
  %this.addr = alloca ptr, align 8
  store ptr %this, ptr %this.addr, align 8
  %this1 = load ptr, ptr %this.addr, align 8
  %m_ref_count = getelementptr inbounds %class.ast, ptr %this1, i32 0, i32 2
  %0 = load i32, ptr %m_ref_count, align 4
  %dec = add i32 %0, -1
  store i32 %dec, ptr %m_ref_count, align 4
  ret void
}

; Function Attrs: mustprogress uwtable
define linkonce_odr hidden void @_ZN11ast_manager7dec_refEP3ast(ptr noundef nonnull align 8 dereferenceable(976) %this, ptr noundef %n) #4 comdat align 2 {
entry:
  %this.addr = alloca ptr, align 8
  %n.addr = alloca ptr, align 8
  store ptr %this, ptr %this.addr, align 8
  store ptr %n, ptr %n.addr, align 8
  %this1 = load ptr, ptr %this.addr, align 8
  %0 = load ptr, ptr %n.addr, align 8
  %tobool = icmp ne ptr %0, null
  br i1 %tobool, label %if.then, label %if.end3

if.then:                                          ; preds = %entry
  %1 = load ptr, ptr %n.addr, align 8
  call void @_ZN3ast7dec_refEv(ptr noundef nonnull align 4 dereferenceable(16) %1)
  %2 = load ptr, ptr %n.addr, align 8
  %call = call noundef i32 @_ZNK3ast13get_ref_countEv(ptr noundef nonnull align 4 dereferenceable(16) %2)
  %cmp = icmp eq i32 %call, 0
  br i1 %cmp, label %if.then2, label %if.end

if.then2:                                         ; preds = %if.then
  %3 = load ptr, ptr %n.addr, align 8
  call void @_ZN11ast_manager11delete_nodeEP3ast(ptr noundef nonnull align 8 dereferenceable(976) %this1, ptr noundef %3)
  br label %if.end

if.end:                                           ; preds = %if.then2, %if.then
  br label %if.end3

if.end3:                                          ; preds = %if.end, %entry
  ret void
}

; Function Attrs: mustprogress uwtable
define linkonce_odr hidden void @_ZN7obj_refI4expr11ast_managerE7dec_refEv(ptr noundef nonnull align 8 dereferenceable(16) %this) #4 comdat align 2 {
entry:
  %this.addr = alloca ptr, align 8
  store ptr %this, ptr %this.addr, align 8
  %this1 = load ptr, ptr %this.addr, align 8
  %m_obj = getelementptr inbounds %class.obj_ref.37, ptr %this1, i32 0, i32 0
  %0 = load ptr, ptr %m_obj, align 8
  %tobool = icmp ne ptr %0, null
  br i1 %tobool, label %if.then, label %if.end

if.then:                                          ; preds = %entry
  %m_manager = getelementptr inbounds %class.obj_ref.37, ptr %this1, i32 0, i32 1
  %1 = load ptr, ptr %m_manager, align 8
  %m_obj2 = getelementptr inbounds %class.obj_ref.37, ptr %this1, i32 0, i32 0
  %2 = load ptr, ptr %m_obj2, align 8
  call void @_ZN11ast_manager7dec_refEP3ast(ptr noundef nonnull align 8 dereferenceable(976) %1, ptr noundef %2)
  br label %if.end

if.end:                                           ; preds = %if.then, %entry
  ret void
}

; Function Attrs: mustprogress nounwind uwtable
define linkonce_odr hidden void @_ZN7obj_refI4expr11ast_managerED2Ev(ptr noundef nonnull align 8 dereferenceable(16) %this) unnamed_addr #5 comdat align 2 personality ptr @__gxx_personality_v0 {
entry:
  %this.addr = alloca ptr, align 8
  store ptr %this, ptr %this.addr, align 8
  %this1 = load ptr, ptr %this.addr, align 8
  invoke void @_ZN7obj_refI4expr11ast_managerE7dec_refEv(ptr noundef nonnull align 8 dereferenceable(16) %this1)
          to label %invoke.cont unwind label %terminate.lpad

invoke.cont:                                      ; preds = %entry
  ret void

terminate.lpad:                                   ; preds = %entry
  %0 = landingpad { ptr, i32 }
          catch ptr null
  %1 = extractvalue { ptr, i32 } %0, 0
  call void @__clang_call_terminate(ptr %1) #14
  unreachable
}

; Function Attrs: mustprogress nounwind uwtable
define internal void @_ZN12_GLOBAL__N_127get_implied_equalities_impl7term_idD2Ev(ptr noundef nonnull align 8 dereferenceable(20) %this) unnamed_addr #5 align 2 {
entry:
  %this.addr = alloca ptr, align 8
  store ptr %this, ptr %this.addr, align 8
  %this1 = load ptr, ptr %this.addr, align 8
  %term = getelementptr inbounds %"struct.(anonymous namespace)::get_implied_equalities_impl::term_id", ptr %this1, i32 0, i32 0
  call void @_ZN7obj_refI4expr11ast_managerED2Ev(ptr noundef nonnull align 8 dereferenceable(16) %term) #3
  ret void
}

; Function Attrs: mustprogress nounwind uwtable
define internal void @_ZSt8_DestroyIN12_GLOBAL__N_127get_implied_equalities_impl7term_idEEvPT_(ptr noundef %__pointer) #5 {
entry:
  %__pointer.addr = alloca ptr, align 8
  store ptr %__pointer, ptr %__pointer.addr, align 8
  %0 = load ptr, ptr %__pointer.addr, align 8
  call void @_ZN12_GLOBAL__N_127get_implied_equalities_impl7term_idD2Ev(ptr noundef nonnull align 8 dereferenceable(20) %0) #3
  ret void
}

; Function Attrs: mustprogress nounwind uwtable
define internal noundef ptr @_ZNSt14_Destroy_n_auxILb0EE11__destroy_nIPN12_GLOBAL__N_127get_implied_equalities_impl7term_idEjEET_S6_T0_(ptr noundef %__first, i32 noundef %__count) #5 align 2 {
entry:
  %__first.addr = alloca ptr, align 8
  %__count.addr = alloca i32, align 4
  store ptr %__first, ptr %__first.addr, align 8
  store i32 %__count, ptr %__count.addr, align 4
  br label %for.cond

for.cond:                                         ; preds = %for.inc, %entry
  %0 = load i32, ptr %__count.addr, align 4
  %cmp = icmp ugt i32 %0, 0
  br i1 %cmp, label %for.body, label %for.end

for.body:                                         ; preds = %for.cond
  %1 = load ptr, ptr %__first.addr, align 8
  call void @_ZSt8_DestroyIN12_GLOBAL__N_127get_implied_equalities_impl7term_idEEvPT_(ptr noundef %1)
  br label %for.inc

for.inc:                                          ; preds = %for.body
  %2 = load ptr, ptr %__first.addr, align 8
  %incdec.ptr = getelementptr inbounds %"struct.(anonymous namespace)::get_implied_equalities_impl::term_id", ptr %2, i32 1
  store ptr %incdec.ptr, ptr %__first.addr, align 8
  %3 = load i32, ptr %__count.addr, align 4
  %dec = add i32 %3, -1
  store i32 %dec, ptr %__count.addr, align 4
  br label %for.cond, !llvm.loop !19

for.end:                                          ; preds = %for.cond
  %4 = load ptr, ptr %__first.addr, align 8
  ret ptr %4
}

; Function Attrs: mustprogress uwtable
define internal noundef ptr @_ZSt10_Destroy_nIPN12_GLOBAL__N_127get_implied_equalities_impl7term_idEjET_S4_T0_(ptr noundef %__first, i32 noundef %__count) #4 {
entry:
  %__first.addr = alloca ptr, align 8
  %__count.addr = alloca i32, align 4
  store ptr %__first, ptr %__first.addr, align 8
  store i32 %__count, ptr %__count.addr, align 4
  %0 = load ptr, ptr %__first.addr, align 8
  %1 = load i32, ptr %__count.addr, align 4
  %call = call noundef ptr @_ZNSt14_Destroy_n_auxILb0EE11__destroy_nIPN12_GLOBAL__N_127get_implied_equalities_impl7term_idEjEET_S6_T0_(ptr noundef %0, i32 noundef %1)
  ret ptr %call
}

; Function Attrs: mustprogress uwtable
define internal noundef ptr @_ZSt9destroy_nIPN12_GLOBAL__N_127get_implied_equalities_impl7term_idEjET_S4_T0_(ptr noundef %__first, i32 noundef %__count) #4 {
entry:
  %__first.addr = alloca ptr, align 8
  %__count.addr = alloca i32, align 4
  store ptr %__first, ptr %__first.addr, align 8
  store i32 %__count, ptr %__count.addr, align 4
  %0 = load ptr, ptr %__first.addr, align 8
  %1 = load i32, ptr %__count.addr, align 4
  %call = call noundef ptr @_ZSt10_Destroy_nIPN12_GLOBAL__N_127get_implied_equalities_impl7term_idEjET_S4_T0_(ptr noundef %0, i32 noundef %1)
  ret ptr %call
}

; Function Attrs: mustprogress nounwind uwtable
define internal noundef i32 @_ZNK6vectorIN12_GLOBAL__N_127get_implied_equalities_impl7term_idELb1EjE4sizeEv(ptr noundef nonnull align 8 dereferenceable(8) %this) #5 align 2 {
entry:
  %retval = alloca i32, align 4
  %this.addr = alloca ptr, align 8
  store ptr %this, ptr %this.addr, align 8
  %this1 = load ptr, ptr %this.addr, align 8
  %m_data = getelementptr inbounds %class.vector.36, ptr %this1, i32 0, i32 0
  %0 = load ptr, ptr %m_data, align 8
  %cmp = icmp eq ptr %0, null
  br i1 %cmp, label %if.then, label %if.end

if.then:                                          ; preds = %entry
  store i32 0, ptr %retval, align 4
  br label %return

if.end:                                           ; preds = %entry
  %m_data2 = getelementptr inbounds %class.vector.36, ptr %this1, i32 0, i32 0
  %1 = load ptr, ptr %m_data2, align 8
  %arrayidx = getelementptr inbounds i32, ptr %1, i64 -1
  %2 = load i32, ptr %arrayidx, align 4
  store i32 %2, ptr %retval, align 4
  br label %return

return:                                           ; preds = %if.end, %if.then
  %3 = load i32, ptr %retval, align 4
  ret i32 %3
}

; Function Attrs: mustprogress uwtable
define internal void @_ZN6vectorIN12_GLOBAL__N_127get_implied_equalities_impl7term_idELb1EjE11free_memoryEv(ptr noundef nonnull align 8 dereferenceable(8) %this) #4 align 2 {
entry:
  %this.addr = alloca ptr, align 8
  store ptr %this, ptr %this.addr, align 8
  %this1 = load ptr, ptr %this.addr, align 8
  %m_data = getelementptr inbounds %class.vector.36, ptr %this1, i32 0, i32 0
  %0 = load ptr, ptr %m_data, align 8
  %add.ptr = getelementptr inbounds i32, ptr %0, i64 -2
  call void @_ZN6memory10deallocateEPv(ptr noundef %add.ptr)
  ret void
}

; Function Attrs: mustprogress uwtable
define internal void @_ZN6vectorIN12_GLOBAL__N_127get_implied_equalities_impl7term_idELb1EjE16destroy_elementsEv(ptr noundef nonnull align 8 dereferenceable(8) %this) #4 align 2 {
entry:
  %this.addr = alloca ptr, align 8
  store ptr %this, ptr %this.addr, align 8
  %this1 = load ptr, ptr %this.addr, align 8
  %m_data = getelementptr inbounds %class.vector.36, ptr %this1, i32 0, i32 0
  %0 = load ptr, ptr %m_data, align 8
  %call = call noundef i32 @_ZNK6vectorIN12_GLOBAL__N_127get_implied_equalities_impl7term_idELb1EjE4sizeEv(ptr noundef nonnull align 8 dereferenceable(8) %this1)
  %call2 = call noundef ptr @_ZSt9destroy_nIPN12_GLOBAL__N_127get_implied_equalities_impl7term_idEjET_S4_T0_(ptr noundef %0, i32 noundef %call)
  ret void
}

; Function Attrs: mustprogress uwtable
define internal void @_ZN6vectorIN12_GLOBAL__N_127get_implied_equalities_impl7term_idELb1EjE7destroyEv(ptr noundef nonnull align 8 dereferenceable(8) %this) #4 align 2 {
entry:
  %this.addr = alloca ptr, align 8
  store ptr %this, ptr %this.addr, align 8
  %this1 = load ptr, ptr %this.addr, align 8
  %m_data = getelementptr inbounds %class.vector.36, ptr %this1, i32 0, i32 0
  %0 = load ptr, ptr %m_data, align 8
  %tobool = icmp ne ptr %0, null
  br i1 %tobool, label %if.then, label %if.end

if.then:                                          ; preds = %entry
  call void @_ZN6vectorIN12_GLOBAL__N_127get_implied_equalities_impl7term_idELb1EjE16destroy_elementsEv(ptr noundef nonnull align 8 dereferenceable(8) %this1)
  call void @_ZN6vectorIN12_GLOBAL__N_127get_implied_equalities_impl7term_idELb1EjE11free_memoryEv(ptr noundef nonnull align 8 dereferenceable(8) %this1)
  br label %if.end

if.end:                                           ; preds = %if.then, %entry
  ret void
}

; Function Attrs: mustprogress nounwind uwtable
define internal void @_ZN6vectorIN12_GLOBAL__N_127get_implied_equalities_impl7term_idELb1EjED2Ev(ptr noundef nonnull align 8 dereferenceable(8) %this) unnamed_addr #5 align 2 personality ptr @__gxx_personality_v0 {
entry:
  %this.addr = alloca ptr, align 8
  store ptr %this, ptr %this.addr, align 8
  %this1 = load ptr, ptr %this.addr, align 8
  invoke void @_ZN6vectorIN12_GLOBAL__N_127get_implied_equalities_impl7term_idELb1EjE7destroyEv(ptr noundef nonnull align 8 dereferenceable(8) %this1)
          to label %invoke.cont unwind label %terminate.lpad

invoke.cont:                                      ; preds = %entry
  ret void

terminate.lpad:                                   ; preds = %entry
  %0 = landingpad { ptr, i32 }
          catch ptr null
  %1 = extractvalue { ptr, i32 } %0, 0
  call void @__clang_call_terminate(ptr %1) #14
  unreachable
}