; Function Attrs: mustprogress nounwind uwtable
define internal fastcc void @_ZN6vectorIN12_GLOBAL__N_127get_implied_equalities_impl7term_idELb1EjED2Ev(ptr nocapture noundef nonnull readonly align 8 dereferenceable(8) %this) unnamed_addr #4 align 2 personality ptr @__gxx_personality_v0 {
entry:
  %0 = load ptr, ptr %this, align 8
  %tobool.not.i = icmp eq ptr %0, null
  br i1 %tobool.not.i, label %invoke.cont, label %_ZNK6vectorIN12_GLOBAL__N_127get_implied_equalities_impl7term_idELb1EjE4sizeEv.exit.i.i

_ZNK6vectorIN12_GLOBAL__N_127get_implied_equalities_impl7term_idELb1EjE4sizeEv.exit.i.i: ; preds = %entry
  %arrayidx.i.i.i = getelementptr inbounds i8, ptr %0, i64 -4
  %1 = load i32, ptr %arrayidx.i.i.i, align 4
  %cmp.not6.i.i.i.i.i = icmp eq i32 %1, 0
  br i1 %cmp.not6.i.i.i.i.i, label %_ZN6vectorIN12_GLOBAL__N_127get_implied_equalities_impl7term_idELb1EjE16destroy_elementsEv.exit.i, label %for.body.i.i.i.i.i

for.body.i.i.i.i.i:                               ; preds = %_ZNK6vectorIN12_GLOBAL__N_127get_implied_equalities_impl7term_idELb1EjE4sizeEv.exit.i.i, %_ZSt8_DestroyIN12_GLOBAL__N_127get_implied_equalities_impl7term_idEEvPT_.exit.i.i.i.i.i
  %__count.addr.08.i.i.i.i.i = phi i32 [ %dec.i.i.i.i.i, %_ZSt8_DestroyIN12_GLOBAL__N_127get_implied_equalities_impl7term_idEEvPT_.exit.i.i.i.i.i ], [ %1, %_ZNK6vectorIN12_GLOBAL__N_127get_implied_equalities_impl7term_idELb1EjE4sizeEv.exit.i.i ]
  %__first.addr.07.i.i.i.i.i = phi ptr [ %incdec.ptr.i.i.i.i.i, %_ZSt8_DestroyIN12_GLOBAL__N_127get_implied_equalities_impl7term_idEEvPT_.exit.i.i.i.i.i ], [ %0, %_ZNK6vectorIN12_GLOBAL__N_127get_implied_equalities_impl7term_idELb1EjE4sizeEv.exit.i.i ]
  %__first.addr.0.val.i.i.i.i.i = load ptr, ptr %__first.addr.07.i.i.i.i.i, align 8
  %2 = getelementptr i8, ptr %__first.addr.07.i.i.i.i.i, i64 8
  %__first.addr.0.val4.i.i.i.i.i = load ptr, ptr %2, align 8
  %tobool.not.i.i.i.i.i.i.i.i.i = icmp eq ptr %__first.addr.0.val.i.i.i.i.i, null
  br i1 %tobool.not.i.i.i.i.i.i.i.i.i, label %_ZSt8_DestroyIN12_GLOBAL__N_127get_implied_equalities_impl7term_idEEvPT_.exit.i.i.i.i.i, label %if.then.i.i.i.i.i.i.i.i.i.i

if.then.i.i.i.i.i.i.i.i.i.i:                      ; preds = %for.body.i.i.i.i.i
  %m_ref_count.i.i.i.i.i.i.i.i.i.i.i = getelementptr inbounds i8, ptr %__first.addr.0.val.i.i.i.i.i, i64 8
  %3 = load i32, ptr %m_ref_count.i.i.i.i.i.i.i.i.i.i.i, align 4
  %dec.i.i.i.i.i.i.i.i.i.i.i = add i32 %3, -1
  store i32 %dec.i.i.i.i.i.i.i.i.i.i.i, ptr %m_ref_count.i.i.i.i.i.i.i.i.i.i.i, align 4
  %cmp.i.i.i.i.i.i.i.i.i.i = icmp eq i32 %dec.i.i.i.i.i.i.i.i.i.i.i, 0
  br i1 %cmp.i.i.i.i.i.i.i.i.i.i, label %if.then2.i.i.i.i.i.i.i.i.i.i, label %_ZSt8_DestroyIN12_GLOBAL__N_127get_implied_equalities_impl7term_idEEvPT_.exit.i.i.i.i.i

if.then2.i.i.i.i.i.i.i.i.i.i:                     ; preds = %if.then.i.i.i.i.i.i.i.i.i.i
  invoke void @_ZN11ast_manager11delete_nodeEP3ast(ptr noundef nonnull align 8 dereferenceable(976) %__first.addr.0.val4.i.i.i.i.i, ptr noundef nonnull %__first.addr.0.val.i.i.i.i.i)
          to label %_ZSt8_DestroyIN12_GLOBAL__N_127get_implied_equalities_impl7term_idEEvPT_.exit.i.i.i.i.i unwind label %terminate.lpad.i.i.i.i.i.i.i.i

terminate.lpad.i.i.i.i.i.i.i.i:                   ; preds = %if.then2.i.i.i.i.i.i.i.i.i.i
  %4 = landingpad { ptr, i32 }
          catch ptr null
  %5 = extractvalue { ptr, i32 } %4, 0
  tail call void @__clang_call_terminate(ptr %5) #16
  unreachable

_ZSt8_DestroyIN12_GLOBAL__N_127get_implied_equalities_impl7term_idEEvPT_.exit.i.i.i.i.i: ; preds = %if.then2.i.i.i.i.i.i.i.i.i.i, %if.then.i.i.i.i.i.i.i.i.i.i, %for.body.i.i.i.i.i
  %incdec.ptr.i.i.i.i.i = getelementptr inbounds i8, ptr %__first.addr.07.i.i.i.i.i, i64 24
  %dec.i.i.i.i.i = add i32 %__count.addr.08.i.i.i.i.i, -1
  %cmp.not.i.i.i.i.i = icmp eq i32 %dec.i.i.i.i.i, 0
  br i1 %cmp.not.i.i.i.i.i, label %_ZN6vectorIN12_GLOBAL__N_127get_implied_equalities_impl7term_idELb1EjE16destroy_elementsEv.exit.loopexit.i, label %for.body.i.i.i.i.i, !llvm.loop !9

_ZN6vectorIN12_GLOBAL__N_127get_implied_equalities_impl7term_idELb1EjE16destroy_elementsEv.exit.loopexit.i: ; preds = %_ZSt8_DestroyIN12_GLOBAL__N_127get_implied_equalities_impl7term_idEEvPT_.exit.i.i.i.i.i
  %this.val1.pre.i = load ptr, ptr %this, align 8
  br label %_ZN6vectorIN12_GLOBAL__N_127get_implied_equalities_impl7term_idELb1EjE16destroy_elementsEv.exit.i

_ZN6vectorIN12_GLOBAL__N_127get_implied_equalities_impl7term_idELb1EjE16destroy_elementsEv.exit.i: ; preds = %_ZN6vectorIN12_GLOBAL__N_127get_implied_equalities_impl7term_idELb1EjE16destroy_elementsEv.exit.loopexit.i, %_ZNK6vectorIN12_GLOBAL__N_127get_implied_equalities_impl7term_idELb1EjE4sizeEv.exit.i.i
  %this.val1.i = phi ptr [ %this.val1.pre.i, %_ZN6vectorIN12_GLOBAL__N_127get_implied_equalities_impl7term_idELb1EjE16destroy_elementsEv.exit.loopexit.i ], [ %0, %_ZNK6vectorIN12_GLOBAL__N_127get_implied_equalities_impl7term_idELb1EjE4sizeEv.exit.i.i ]
  %add.ptr.i.i = getelementptr inbounds i8, ptr %this.val1.i, i64 -8
  invoke void @_ZN6memory10deallocateEPv(ptr noundef nonnull %add.ptr.i.i)
          to label %invoke.cont unwind label %terminate.lpad

invoke.cont:                                      ; preds = %entry, %_ZN6vectorIN12_GLOBAL__N_127get_implied_equalities_impl7term_idELb1EjE16destroy_elementsEv.exit.i
  ret void

terminate.lpad:                                   ; preds = %_ZN6vectorIN12_GLOBAL__N_127get_implied_equalities_impl7term_idELb1EjE16destroy_elementsEv.exit.i
  %6 = landingpad { ptr, i32 }
          catch ptr null
  %7 = extractvalue { ptr, i32 } %6, 0
  tail call void @__clang_call_terminate(ptr %7) #16
  unreachable
}